target datalayout = "e-m:e-p270:32:32-p271:32:32-p272:64:64-i64:64-i128:128-f80:128-n8:16:32:64-S128"
target triple = "x86_64-pc-linux-gnu"

%union.av_intfloat64 = type { i64 }

@ff_log2_tab = external constant [256 x i8], align 16
@.str.45 = private unnamed_addr constant [30 x i8] c"Assertion %s failed at %s:%d\0A\00", align 1
@.str.47 = private unnamed_addr constant [26 x i8] c"libavformat/matroskaenc.c\00", align 1
@.str.54 = private unnamed_addr constant [26 x i8] c"length < (1ULL << 56) - 1\00", align 1
@.str.55 = private unnamed_addr constant [22 x i8] c"bytes >= needed_bytes\00", align 1

; Function Attrs: nounwind uwtable
define internal i32 @ebml_num_size(i64 noundef %0) #0 {
  %2 = alloca i64, align 8
  %3 = alloca i32, align 4
  store i64 %0, ptr %2, align 8, !tbaa !79
  call void @llvm.lifetime.start.p0(i64 4, ptr %3) #16
  store i32 0, ptr %3, align 4, !tbaa !30
  br label %4

4:                                                ; preds = %7, %1
  %5 = load i32, ptr %3, align 4, !tbaa !30
  %6 = add nsw i32 %5, 1
  store i32 %6, ptr %3, align 4, !tbaa !30
  br label %7

7:                                                ; preds = %4
  %8 = load i64, ptr %2, align 8, !tbaa !79
  %9 = lshr i64 %8, 7
  store i64 %9, ptr %2, align 8, !tbaa !79
  %10 = icmp ne i64 %9, 0
  br i1 %10, label %4, label %11, !llvm.loop !202

11:                                               ; preds = %7
  %12 = load i32, ptr %3, align 4, !tbaa !30
  call void @llvm.lifetime.end.p0(i64 4, ptr %3) #16
  ret i32 %12
}

; Function Attrs: alwaysinline nounwind willreturn memory(none) uwtable
define internal i32 @ff_log2_c(i32 noundef %0) #6 {
  %2 = alloca i32, align 4
  %3 = alloca i32, align 4
  store i32 %0, ptr %2, align 4, !tbaa !30
  call void @llvm.lifetime.start.p0(i64 4, ptr %3) #16
  store i32 0, ptr %3, align 4, !tbaa !30
  %4 = load i32, ptr %2, align 4, !tbaa !30
  %5 = and i32 %4, -65536
  %6 = icmp ne i32 %5, 0
  br i1 %6, label %7, label %12

7:                                                ; preds = %1
  %8 = load i32, ptr %2, align 4, !tbaa !30
  %9 = lshr i32 %8, 16
  store i32 %9, ptr %2, align 4, !tbaa !30
  %10 = load i32, ptr %3, align 4, !tbaa !30
  %11 = add nsw i32 %10, 16
  store i32 %11, ptr %3, align 4, !tbaa !30
  br label %12

12:                                               ; preds = %7, %1
  %13 = load i32, ptr %2, align 4, !tbaa !30
  %14 = and i32 %13, 65280
  %15 = icmp ne i32 %14, 0
  br i1 %15, label %16, label %21

16:                                               ; preds = %12
  %17 = load i32, ptr %2, align 4, !tbaa !30
  %18 = lshr i32 %17, 8
  store i32 %18, ptr %2, align 4, !tbaa !30
  %19 = load i32, ptr %3, align 4, !tbaa !30
  %20 = add nsw i32 %19, 8
  store i32 %20, ptr %3, align 4, !tbaa !30
  br label %21

21:                                               ; preds = %16, %12
  %22 = load i32, ptr %2, align 4, !tbaa !30
  %23 = zext i32 %22 to i64
  %24 = getelementptr inbounds nuw [256 x i8], ptr @ff_log2_tab, i64 0, i64 %23
  %25 = load i8, ptr %24, align 1, !tbaa !122
  %26 = zext i8 %25 to i32
  %27 = load i32, ptr %3, align 4, !tbaa !30
  %28 = add nsw i32 %27, %26
  store i32 %28, ptr %3, align 4, !tbaa !30
  %29 = load i32, ptr %3, align 4, !tbaa !30
  call void @llvm.lifetime.end.p0(i64 4, ptr %3) #16
  ret i32 %29
}

; Function Attrs: nounwind uwtable
define internal void @put_ebml_num(ptr noundef %0, i64 noundef %1, i32 noundef %2) #0 {
  %4 = alloca ptr, align 8
  %5 = alloca i64, align 8
  %6 = alloca i32, align 4
  %7 = alloca i32, align 4
  store ptr %0, ptr %4, align 8, !tbaa !29
  store i64 %1, ptr %5, align 8, !tbaa !79
  store i32 %2, ptr %6, align 4, !tbaa !30
  %8 = load i32, ptr %6, align 4, !tbaa !30
  %9 = mul nsw i32 %8, 7
  %10 = zext i32 %9 to i64
  %11 = shl i64 1, %10
  %12 = load i64, ptr %5, align 8, !tbaa !79
  %13 = or i64 %12, %11
  store i64 %13, ptr %5, align 8, !tbaa !79
  call void @llvm.lifetime.start.p0(i64 4, ptr %7) #16
  %14 = load i32, ptr %6, align 4, !tbaa !30
  %15 = sub nsw i32 %14, 1
  store i32 %15, ptr %7, align 4, !tbaa !30
  br label %16

16:                                               ; preds = %29, %3
  %17 = load i32, ptr %7, align 4, !tbaa !30
  %18 = icmp sge i32 %17, 0
  br i1 %18, label %20, label %19

19:                                               ; preds = %16
  call void @llvm.lifetime.end.p0(i64 4, ptr %7) #16
  br label %32

20:                                               ; preds = %16
  %21 = load ptr, ptr %4, align 8, !tbaa !29
  %22 = load i64, ptr %5, align 8, !tbaa !79
  %23 = load i32, ptr %7, align 4, !tbaa !30
  %24 = mul nsw i32 %23, 8
  %25 = zext i32 %24 to i64
  %26 = lshr i64 %22, %25
  %27 = trunc i64 %26 to i8
  %28 = zext i8 %27 to i32
  call void @avio_w8(ptr noundef %21, i32 noundef %28)
  br label %29

29:                                               ; preds = %20
  %30 = load i32, ptr %7, align 4, !tbaa !30
  %31 = add nsw i32 %30, -1
  store i32 %31, ptr %7, align 4, !tbaa !30
  br label %16, !llvm.loop !203

32:                                               ; preds = %19
  ret void
}

; Function Attrs: nounwind uwtable
define internal i32 @ebml_length_size(i64 noundef %0) #0 {
  %2 = alloca i64, align 8
  store i64 %0, ptr %2, align 8, !tbaa !79
  %3 = load i64, ptr %2, align 8, !tbaa !79
  %4 = add i64 %3, 1
  %5 = call i32 @ebml_num_size(i64 noundef %4)
  ret i32 %5
}

; Function Attrs: nounwind uwtable
define internal i32 @ebml_id_size(i32 noundef %0) #0 {
  %2 = alloca i32, align 4
  store i32 %0, ptr %2, align 4, !tbaa !30
  %3 = load i32, ptr %2, align 4, !tbaa !30
  %4 = call i32 @ff_log2_c(i32 noundef %3) #19
  %5 = add i32 %4, 7
  %6 = udiv i32 %5, 8
  ret i32 %6
}

; Function Attrs: alwaysinline nounwind uwtable
define internal i64 @av_double2int(double noundef %0) #3 {
  %2 = alloca double, align 8
  %3 = alloca %union.av_intfloat64, align 8
  store double %0, ptr %2, align 8, !tbaa !97
  call void @llvm.lifetime.start.p0(i64 8, ptr %3) #16
  %4 = load double, ptr %2, align 8, !tbaa !97
  store double %4, ptr %3, align 8, !tbaa !122
  %5 = load i64, ptr %3, align 8, !tbaa !122
  call void @llvm.lifetime.end.p0(i64 8, ptr %3) #16
  ret i64 %5
}

; Function Attrs: nounwind uwtable
define internal void @put_ebml_length(ptr noundef %0, i64 noundef %1, i32 noundef %2) #0 {
  %4 = alloca ptr, align 8
  %5 = alloca i64, align 8
  %6 = alloca i32, align 4
  %7 = alloca i32, align 4
  store ptr %0, ptr %4, align 8, !tbaa !29
  store i64 %1, ptr %5, align 8, !tbaa !79
  store i32 %2, ptr %6, align 4, !tbaa !30
  call void @llvm.lifetime.start.p0(i64 4, ptr %7) #16
  %8 = load i64, ptr %5, align 8, !tbaa !79
  %9 = call i32 @ebml_length_size(i64 noundef %8)
  store i32 %9, ptr %7, align 4, !tbaa !30
  br label %10

10:                                               ; preds = %3
  %11 = load i64, ptr %5, align 8, !tbaa !79
  %12 = icmp ult i64 %11, 72057594037927935
  br i1 %12, label %14, label %13

13:                                               ; preds = %10
  call void (ptr, i32, ptr, ...) @av_log(ptr noundef null, i32 noundef 0, ptr noundef @.str.45, ptr noundef @.str.54, ptr noundef @.str.47, i32 noundef 354)
  call void @abort() #17
  unreachable

14:                                               ; preds = %10
  br label %15

15:                                               ; preds = %14
  br label %16

16:                                               ; preds = %15
  %17 = load i32, ptr %6, align 4, !tbaa !30
  %18 = icmp eq i32 %17, 0
  br i1 %18, label %19, label %21

19:                                               ; preds = %16
  %20 = load i32, ptr %7, align 4, !tbaa !30
  store i32 %20, ptr %6, align 4, !tbaa !30
  br label %21

21:                                               ; preds = %19, %16
  br label %22

22:                                               ; preds = %21
  %23 = load i32, ptr %6, align 4, !tbaa !30
  %24 = load i32, ptr %7, align 4, !tbaa !30
  %25 = icmp sge i32 %23, %24
  br i1 %25, label %27, label %26

26:                                               ; preds = %22
  call void (ptr, i32, ptr, ...) @av_log(ptr noundef null, i32 noundef 0, ptr noundef @.str.45, ptr noundef @.str.55, ptr noundef @.str.47, i32 noundef 360)
  call void @abort() #17
  unreachable

27:                                               ; preds = %22
  br label %28

28:                                               ; preds = %27
  br label %29

29:                                               ; preds = %28
  %30 = load ptr, ptr %4, align 8, !tbaa !29
  %31 = load i64, ptr %5, align 8, !tbaa !79
  %32 = load i32, ptr %6, align 4, !tbaa !30
  call void @put_ebml_num(ptr noundef %30, i64 noundef %31, i32 noundef %32)
  call void @llvm.lifetime.end.p0(i64 4, ptr %7) #16
  ret void
}

; Function Attrs: nounwind uwtable
define internal void @put_ebml_id(ptr noundef %0, i32 noundef %1) #0 {
  %3 = alloca ptr, align 8
  %4 = alloca i32, align 4
  %5 = alloca i32, align 4
  store ptr %0, ptr %3, align 8, !tbaa !29
  store i32 %1, ptr %4, align 4, !tbaa !30
  call void @llvm.lifetime.start.p0(i64 4, ptr %5) #16
  %6 = load i32, ptr %4, align 4, !tbaa !30
  %7 = call i32 @ebml_id_size(i32 noundef %6)
  store i32 %7, ptr %5, align 4, !tbaa !30
  br label %8

8:                                                ; preds = %12, %2
  %9 = load i32, ptr %5, align 4, !tbaa !30
  %10 = add nsw i32 %9, -1
  store i32 %10, ptr %5, align 4, !tbaa !30
  %11 = icmp ne i32 %9, 0
  br i1 %11, label %12, label %20

12:                                               ; preds = %8
  %13 = load ptr, ptr %3, align 8, !tbaa !29
  %14 = load i32, ptr %4, align 4, !tbaa !30
  %15 = load i32, ptr %5, align 4, !tbaa !30
  %16 = mul nsw i32 %15, 8
  %17 = lshr i32 %14, %16
  %18 = trunc i32 %17 to i8
  %19 = zext i8 %18 to i32
  call void @avio_w8(ptr noundef %13, i32 noundef %19)
  br label %8, !llvm.loop !140

20:                                               ; preds = %8
  call void @llvm.lifetime.end.p0(i64 4, ptr %5) #16
  ret void
}

; Function Attrs: nounwind uwtable
define internal void @put_ebml_float(ptr noundef %0, i32 noundef %1, double noundef %2) #0 {
  %4 = alloca ptr, align 8
  %5 = alloca i32, align 4
  %6 = alloca double, align 8
  store ptr %0, ptr %4, align 8, !tbaa !29
  store i32 %1, ptr %5, align 4, !tbaa !30
  store double %2, ptr %6, align 8, !tbaa !97
  %7 = load ptr, ptr %4, align 8, !tbaa !29
  %8 = load i32, ptr %5, align 4, !tbaa !30
  call void @put_ebml_id(ptr noundef %7, i32 noundef %8)
  %9 = load ptr, ptr %4, align 8, !tbaa !29
  call void @put_ebml_length(ptr noundef %9, i64 noundef 8, i32 noundef 0)
  %10 = load ptr, ptr %4, align 8, !tbaa !29
  %11 = load double, ptr %6, align 8, !tbaa !97
  %12 = call i64 @av_double2int(double noundef %11)
  call void @avio_wb64(ptr noundef %10, i64 noundef %12)
  ret void
}