; Function Attrs: nounwind uwtable
define internal fastcc void @put_ebml_float(ptr noundef %0, i32 noundef range(i32 181, 30902) %1, double noundef %2) unnamed_addr #0 {
  %.not11.i.i.i = icmp samesign ult i32 %1, 256
  %4 = lshr i32 %1, 8
  %.110.i.i.i = select i1 %.not11.i.i.i, i32 %1, i32 %4
  %5 = zext nneg i32 %.110.i.i.i to i64
  %6 = getelementptr inbounds nuw [256 x i8], ptr @ff_log2_tab, i64 0, i64 %5
  %7 = load i8, ptr %6, align 1, !tbaa !50
  %8 = zext i8 %7 to i32
  %9 = select i1 %.not11.i.i.i, i32 7, i32 15
  %10 = add nuw nsw i32 %9, %8
  %.not4.i = icmp samesign ult i32 %10, 8
  br i1 %.not4.i, label %put_ebml_id.exit, label %.lr.ph.preheader.i

.lr.ph.preheader.i:                               ; preds = %3
  %11 = lshr i32 %10, 3
  br label %.lr.ph.i

.lr.ph.i:                                         ; preds = %.lr.ph.i, %.lr.ph.preheader.i
  %.05.i = phi i32 [ %12, %.lr.ph.i ], [ %11, %.lr.ph.preheader.i ]
  %12 = add nsw i32 %.05.i, -1
  %13 = shl nsw i32 %12, 3
  %14 = lshr i32 %1, %13
  %15 = and i32 %14, 255
  tail call void @avio_w8(ptr noundef %0, i32 noundef %15) #14
  %.not.i = icmp eq i32 %12, 0
  br i1 %.not.i, label %put_ebml_id.exit, label %.lr.ph.i, !llvm.loop !51

put_ebml_id.exit:                                 ; preds = %.lr.ph.i, %3
  tail call void @avio_w8(ptr noundef %0, i32 noundef 136) #14
  %16 = bitcast double %2 to i64
  tail call void @avio_wb64(ptr noundef %0, i64 noundef %16) #14
  ret void
}